; Function Attrs: nounwind uwtable
define internal void @VULKAN_PushDebugGroup(ptr noundef readonly captures(none) %0, ptr noundef %1) #0 {
  %3 = alloca %struct.VkDebugUtilsLabelEXT, align 8
  %4 = getelementptr inbounds nuw i8, ptr %0, i64 128
  %5 = load ptr, ptr %4, align 8
  call void @llvm.lifetime.start.p0(i64 40, ptr nonnull %3) #13
  %6 = getelementptr inbounds nuw i8, ptr %5, i64 1645
  %7 = load i8, ptr %6, align 1, !range !3, !noundef !4
  %8 = trunc nuw i8 %7 to i1
  br i1 %8, label %9, label %15

9:                                                ; preds = %2
  call void @llvm.memset.p0.i64(ptr noundef nonnull align 8 dereferenceable(40) %3, i8 0, i64 40, i1 false)
  store i32 1000128002, ptr %3, align 8
  %10 = getelementptr inbounds nuw i8, ptr %3, i64 16
  store ptr %1, ptr %10, align 8
  %11 = getelementptr inbounds nuw i8, ptr %5, i64 2712
  %12 = load ptr, ptr %11, align 8
  %13 = getelementptr inbounds nuw i8, ptr %0, i64 136
  %14 = load ptr, ptr %13, align 8
  call void %12(ptr noundef %14, ptr noundef nonnull %3) #13
  br label %15

15:                                               ; preds = %9, %2
  call void @llvm.lifetime.end.p0(i64 40, ptr nonnull %3) #13
  ret void
}